target datalayout = "e-m:e-p270:32:32-p271:32:32-p272:64:64-i64:64-i128:128-f80:128-n8:16:32:64-S128"
target triple = "x86_64-pc-linux-gnu"

%struct._someip_parameter_array_uat = type { i32, ptr, i32, i32, i32, ptr, i32, i32, i32, i32, i32 }

@g_ascii_table = external constant ptr, align 8
@.str.398 = private unnamed_addr constant [33 x i8] c"Name cannot be empty (ID: 0x%x)!\00", align 1
@.str.399 = private unnamed_addr constant [46 x i8] c"Dimension >= Number of Dimensions (ID: 0x%x)!\00", align 1
@.str.400 = private unnamed_addr constant [42 x i8] c"Filter String cannot be empty (ID: 0x%x)!\00", align 1
@.str.401 = private unnamed_addr constant [43 x i8] c"An array cannot include itself (ID: 0x%x)!\00", align 1
@.str.402 = private unnamed_addr constant [51 x i8] c"Filter String contains illegal chars '.' (ID: %i )\00", align 1
@.str.403 = private unnamed_addr constant [51 x i8] c"Filter String contains illegal chars '%c' (ID: %i)\00", align 1
@.str.404 = private unnamed_addr constant [51 x i8] c"Filter String contains invalid byte \\%03o (ID: %i)\00", align 1

; Function Attrs: null_pointer_is_valid sspstrong uwtable
define internal ptr @check_filter_string(ptr noundef %0, i32 noundef %1) #0 {
  %3 = alloca ptr, align 8
  %4 = alloca i32, align 4
  %5 = alloca ptr, align 8
  %6 = alloca i8, align 1
  store ptr %0, ptr %3, align 8
  store i32 %1, ptr %4, align 4
  call void @llvm.lifetime.start.p0(i64 8, ptr %5) #19
  store ptr null, ptr %5, align 8
  call void @llvm.lifetime.start.p0(i64 1, ptr %6) #19
  %7 = load ptr, ptr %3, align 8
  %8 = call zeroext i8 @proto_check_field_name(ptr noundef %7)
  store i8 %8, ptr %6, align 1
  %9 = load i8, ptr %6, align 1
  %10 = icmp ne i8 %9, 0
  br i1 %10, label %11, label %39

11:                                               ; preds = %2
  %12 = load i8, ptr %6, align 1
  %13 = zext i8 %12 to i32
  %14 = icmp eq i32 %13, 46
  br i1 %14, label %15, label %18

15:                                               ; preds = %11
  %16 = load i32, ptr %4, align 4
  %17 = call noalias ptr (ptr, ptr, ...) @wmem_strdup_printf(ptr noundef null, ptr noundef @.str.402, i32 noundef %16)
  store ptr %17, ptr %5, align 8
  br label %38

18:                                               ; preds = %11
  %19 = load ptr, ptr @g_ascii_table, align 8
  %20 = load i8, ptr %6, align 1
  %21 = zext i8 %20 to i64
  %22 = getelementptr i16, ptr %19, i64 %21
  %23 = load i16, ptr %22, align 2
  %24 = zext i16 %23 to i32
  %25 = and i32 %24, 64
  %26 = icmp ne i32 %25, 0
  br i1 %26, label %27, label %32

27:                                               ; preds = %18
  %28 = load i8, ptr %6, align 1
  %29 = zext i8 %28 to i32
  %30 = load i32, ptr %4, align 4
  %31 = call noalias ptr (ptr, ptr, ...) @wmem_strdup_printf(ptr noundef null, ptr noundef @.str.403, i32 noundef %29, i32 noundef %30)
  store ptr %31, ptr %5, align 8
  br label %37

32:                                               ; preds = %18
  %33 = load i8, ptr %6, align 1
  %34 = zext i8 %33 to i32
  %35 = load i32, ptr %4, align 4
  %36 = call noalias ptr (ptr, ptr, ...) @wmem_strdup_printf(ptr noundef null, ptr noundef @.str.404, i32 noundef %34, i32 noundef %35)
  store ptr %36, ptr %5, align 8
  br label %37

37:                                               ; preds = %32, %27
  br label %38

38:                                               ; preds = %37, %15
  br label %39

39:                                               ; preds = %38, %2
  %40 = load ptr, ptr %5, align 8
  call void @llvm.lifetime.end.p0(i64 1, ptr %6) #19
  call void @llvm.lifetime.end.p0(i64 8, ptr %5) #19
  ret ptr %40
}

; Function Attrs: null_pointer_is_valid sspstrong uwtable
define internal zeroext i1 @update_someip_parameter_array(ptr noundef %0, ptr noundef %1) #0 {
  %3 = alloca i1, align 1
  %4 = alloca ptr, align 8
  %5 = alloca ptr, align 8
  %6 = alloca ptr, align 8
  %7 = alloca ptr, align 8
  %8 = alloca i32, align 4
  store ptr %0, ptr %4, align 8
  store ptr %1, ptr %5, align 8
  call void @llvm.lifetime.start.p0(i64 8, ptr %6) #19
  %9 = load ptr, ptr %4, align 8
  store ptr %9, ptr %6, align 8
  call void @llvm.lifetime.start.p0(i64 8, ptr %7) #19
  %10 = load ptr, ptr %6, align 8
  %11 = getelementptr inbounds nuw %struct._someip_parameter_array_uat, ptr %10, i32 0, i32 1
  %12 = load ptr, ptr %11, align 8
  %13 = icmp eq ptr %12, null
  br i1 %13, label %22, label %14

14:                                               ; preds = %2
  %15 = load ptr, ptr %6, align 8
  %16 = getelementptr inbounds nuw %struct._someip_parameter_array_uat, ptr %15, i32 0, i32 1
  %17 = load ptr, ptr %16, align 8
  %18 = getelementptr i8, ptr %17, i64 0
  %19 = load i8, ptr %18, align 1
  %20 = sext i8 %19 to i32
  %21 = icmp eq i32 %20, 0
  br i1 %21, label %22, label %28

22:                                               ; preds = %14, %2
  %23 = load ptr, ptr %6, align 8
  %24 = getelementptr inbounds nuw %struct._someip_parameter_array_uat, ptr %23, i32 0, i32 0
  %25 = load i32, ptr %24, align 8
  %26 = call noalias ptr (ptr, ptr, ...) @wmem_strdup_printf(ptr noundef null, ptr noundef @.str.398, i32 noundef %25)
  %27 = load ptr, ptr %5, align 8
  store ptr %26, ptr %27, align 8
  store i1 false, ptr %3, align 1
  store i32 1, ptr %8, align 4
  br label %94

28:                                               ; preds = %14
  %29 = load ptr, ptr %6, align 8
  %30 = getelementptr inbounds nuw %struct._someip_parameter_array_uat, ptr %29, i32 0, i32 6
  %31 = load i32, ptr %30, align 8
  %32 = load ptr, ptr %6, align 8
  %33 = getelementptr inbounds nuw %struct._someip_parameter_array_uat, ptr %32, i32 0, i32 4
  %34 = load i32, ptr %33, align 8
  %35 = icmp uge i32 %31, %34
  br i1 %35, label %36, label %42

36:                                               ; preds = %28
  %37 = load ptr, ptr %6, align 8
  %38 = getelementptr inbounds nuw %struct._someip_parameter_array_uat, ptr %37, i32 0, i32 0
  %39 = load i32, ptr %38, align 8
  %40 = call noalias ptr (ptr, ptr, ...) @wmem_strdup_printf(ptr noundef null, ptr noundef @.str.399, i32 noundef %39)
  %41 = load ptr, ptr %5, align 8
  store ptr %40, ptr %41, align 8
  store i1 false, ptr %3, align 1
  store i32 1, ptr %8, align 4
  br label %94

42:                                               ; preds = %28
  %43 = load ptr, ptr %6, align 8
  %44 = getelementptr inbounds nuw %struct._someip_parameter_array_uat, ptr %43, i32 0, i32 5
  %45 = load ptr, ptr %44, align 8
  %46 = icmp eq ptr %45, null
  br i1 %46, label %55, label %47

47:                                               ; preds = %42
  %48 = load ptr, ptr %6, align 8
  %49 = getelementptr inbounds nuw %struct._someip_parameter_array_uat, ptr %48, i32 0, i32 5
  %50 = load ptr, ptr %49, align 8
  %51 = getelementptr i8, ptr %50, i64 0
  %52 = load i8, ptr %51, align 1
  %53 = sext i8 %52 to i32
  %54 = icmp eq i32 %53, 0
  br i1 %54, label %55, label %61

55:                                               ; preds = %47, %42
  %56 = load ptr, ptr %6, align 8
  %57 = getelementptr inbounds nuw %struct._someip_parameter_array_uat, ptr %56, i32 0, i32 0
  %58 = load i32, ptr %57, align 8
  %59 = call noalias ptr (ptr, ptr, ...) @wmem_strdup_printf(ptr noundef null, ptr noundef @.str.400, i32 noundef %58)
  %60 = load ptr, ptr %5, align 8
  store ptr %59, ptr %60, align 8
  store i1 false, ptr %3, align 1
  store i32 1, ptr %8, align 4
  br label %94

61:                                               ; preds = %47
  %62 = load ptr, ptr %6, align 8
  %63 = getelementptr inbounds nuw %struct._someip_parameter_array_uat, ptr %62, i32 0, i32 5
  %64 = load ptr, ptr %63, align 8
  %65 = load ptr, ptr %6, align 8
  %66 = getelementptr inbounds nuw %struct._someip_parameter_array_uat, ptr %65, i32 0, i32 0
  %67 = load i32, ptr %66, align 8
  %68 = call ptr @check_filter_string(ptr noundef %64, i32 noundef %67)
  store ptr %68, ptr %7, align 8
  %69 = load ptr, ptr %7, align 8
  %70 = icmp ne ptr %69, null
  br i1 %70, label %71, label %74

71:                                               ; preds = %61
  %72 = load ptr, ptr %7, align 8
  %73 = load ptr, ptr %5, align 8
  store ptr %72, ptr %73, align 8
  store i1 false, ptr %3, align 1
  store i32 1, ptr %8, align 4
  br label %94

74:                                               ; preds = %61
  %75 = load ptr, ptr %6, align 8
  %76 = getelementptr inbounds nuw %struct._someip_parameter_array_uat, ptr %75, i32 0, i32 2
  %77 = load i32, ptr %76, align 8
  %78 = icmp eq i32 %77, 3
  br i1 %78, label %79, label %93

79:                                               ; preds = %74
  %80 = load ptr, ptr %6, align 8
  %81 = getelementptr inbounds nuw %struct._someip_parameter_array_uat, ptr %80, i32 0, i32 0
  %82 = load i32, ptr %81, align 8
  %83 = load ptr, ptr %6, align 8
  %84 = getelementptr inbounds nuw %struct._someip_parameter_array_uat, ptr %83, i32 0, i32 3
  %85 = load i32, ptr %84, align 4
  %86 = icmp eq i32 %82, %85
  br i1 %86, label %87, label %93

87:                                               ; preds = %79
  %88 = load ptr, ptr %6, align 8
  %89 = getelementptr inbounds nuw %struct._someip_parameter_array_uat, ptr %88, i32 0, i32 0
  %90 = load i32, ptr %89, align 8
  %91 = call noalias ptr (ptr, ptr, ...) @wmem_strdup_printf(ptr noundef null, ptr noundef @.str.401, i32 noundef %90)
  %92 = load ptr, ptr %5, align 8
  store ptr %91, ptr %92, align 8
  store i1 false, ptr %3, align 1
  store i32 1, ptr %8, align 4
  br label %94

93:                                               ; preds = %79, %74
  store i1 true, ptr %3, align 1
  store i32 1, ptr %8, align 4
  br label %94

94:                                               ; preds = %93, %87, %71, %55, %36, %22
  call void @llvm.lifetime.end.p0(i64 8, ptr %7) #19
  call void @llvm.lifetime.end.p0(i64 8, ptr %6) #19
  %95 = load i1, ptr %3, align 1
  ret i1 %95
}