; Function Attrs: null_pointer_is_valid sspstrong uwtable
define internal noundef zeroext i1 @update_someip_parameter_array(ptr noundef readonly captures(none) %0, ptr noundef writeonly captures(none) %1) #0 {
  %3 = getelementptr inbounds nuw i8, ptr %0, i64 8
  %4 = load ptr, ptr %3, align 8
  %5 = icmp eq ptr %4, null
  br i1 %5, label %9, label %6

6:                                                ; preds = %2
  %7 = load i8, ptr %4, align 1
  %8 = icmp eq i8 %7, 0
  br i1 %8, label %9, label %12

9:                                                ; preds = %6, %2
  %10 = load i32, ptr %0, align 8
  %11 = tail call noalias ptr (ptr, ptr, ...) @wmem_strdup_printf(ptr noundef null, ptr noundef nonnull @.str.398, i32 noundef %10)
  br label %.sink.split

12:                                               ; preds = %6
  %13 = getelementptr inbounds nuw i8, ptr %0, i64 40
  %14 = load i32, ptr %13, align 8
  %15 = getelementptr inbounds nuw i8, ptr %0, i64 24
  %16 = load i32, ptr %15, align 8
  %.not = icmp ult i32 %14, %16
  br i1 %.not, label %20, label %17

17:                                               ; preds = %12
  %18 = load i32, ptr %0, align 8
  %19 = tail call noalias ptr (ptr, ptr, ...) @wmem_strdup_printf(ptr noundef null, ptr noundef nonnull @.str.399, i32 noundef %18)
  br label %.sink.split

20:                                               ; preds = %12
  %21 = getelementptr inbounds nuw i8, ptr %0, i64 32
  %22 = load ptr, ptr %21, align 8
  %23 = icmp eq ptr %22, null
  br i1 %23, label %27, label %24

24:                                               ; preds = %20
  %25 = load i8, ptr %22, align 1
  %26 = icmp eq i8 %25, 0
  br i1 %26, label %27, label %30

27:                                               ; preds = %24, %20
  %28 = load i32, ptr %0, align 8
  %29 = tail call noalias ptr (ptr, ptr, ...) @wmem_strdup_printf(ptr noundef null, ptr noundef nonnull @.str.400, i32 noundef %28)
  br label %.sink.split

30:                                               ; preds = %24
  %31 = load i32, ptr %0, align 8
  %32 = tail call zeroext i8 @proto_check_field_name(ptr noundef nonnull %22)
  %.not.i = icmp eq i8 %32, 0
  br i1 %.not.i, label %check_filter_string.exit.thread, label %33

33:                                               ; preds = %30
  %34 = zext i8 %32 to i32
  %35 = icmp eq i8 %32, 46
  br i1 %35, label %36, label %38

36:                                               ; preds = %33
  %37 = tail call noalias ptr (ptr, ptr, ...) @wmem_strdup_printf(ptr noundef null, ptr noundef nonnull @.str.402, i32 noundef %31)
  br label %check_filter_string.exit

38:                                               ; preds = %33
  %39 = load ptr, ptr @g_ascii_table, align 8
  %40 = zext i8 %32 to i64
  %41 = getelementptr i16, ptr %39, i64 %40
  %42 = load i16, ptr %41, align 2
  %43 = and i16 %42, 64
  %.not11.i = icmp eq i16 %43, 0
  br i1 %.not11.i, label %46, label %44

44:                                               ; preds = %38
  %45 = tail call noalias ptr (ptr, ptr, ...) @wmem_strdup_printf(ptr noundef null, ptr noundef nonnull @.str.403, i32 noundef %34, i32 noundef %31)
  br label %check_filter_string.exit

46:                                               ; preds = %38
  %47 = tail call noalias ptr (ptr, ptr, ...) @wmem_strdup_printf(ptr noundef null, ptr noundef nonnull @.str.404, i32 noundef %34, i32 noundef %31)
  br label %check_filter_string.exit

check_filter_string.exit:                         ; preds = %36, %44, %46
  %.0.i = phi ptr [ %37, %36 ], [ %45, %44 ], [ %47, %46 ]
  %.not28 = icmp eq ptr %.0.i, null
  br i1 %.not28, label %check_filter_string.exit.thread, label %.sink.split

check_filter_string.exit.thread:                  ; preds = %30, %check_filter_string.exit
  %48 = getelementptr inbounds nuw i8, ptr %0, i64 16
  %49 = load i32, ptr %48, align 8
  %50 = icmp eq i32 %49, 3
  br i1 %50, label %51, label %58

51:                                               ; preds = %check_filter_string.exit.thread
  %52 = load i32, ptr %0, align 8
  %53 = getelementptr inbounds nuw i8, ptr %0, i64 20
  %54 = load i32, ptr %53, align 4
  %55 = icmp eq i32 %52, %54
  br i1 %55, label %56, label %58

56:                                               ; preds = %51
  %57 = tail call noalias ptr (ptr, ptr, ...) @wmem_strdup_printf(ptr noundef null, ptr noundef nonnull @.str.401, i32 noundef %52)
  br label %.sink.split

.sink.split:                                      ; preds = %check_filter_string.exit, %9, %17, %27, %56
  %.sink = phi ptr [ %57, %56 ], [ %29, %27 ], [ %19, %17 ], [ %11, %9 ], [ %.0.i, %check_filter_string.exit ]
  store ptr %.sink, ptr %1, align 8
  br label %58

58:                                               ; preds = %.sink.split, %check_filter_string.exit.thread, %51
  %.0 = phi i1 [ true, %51 ], [ true, %check_filter_string.exit.thread ], [ false, %.sink.split ]
  ret i1 %.0
}